; Function Attrs: null_pointer_is_valid sspstrong uwtable
define range(i64 -72057594037927936, 72057594037927936) i64 @tvb_get_ntohi48(ptr noundef %0, i32 noundef %1) local_unnamed_addr #0 {
  %3 = tail call fastcc ptr @fast_ensure_contiguous(ptr noundef %0, i32 noundef %1, i32 noundef 6)
  %4 = load i8, ptr %3, align 1
  %5 = zext i8 %4 to i64
  %6 = shl nuw nsw i64 %5, 40
  %7 = getelementptr i8, ptr %3, i64 1
  %8 = load i8, ptr %7, align 1
  %9 = zext i8 %8 to i64
  %10 = shl nuw nsw i64 %9, 32
  %11 = getelementptr i8, ptr %3, i64 2
  %12 = load i8, ptr %11, align 1
  %13 = zext i8 %12 to i64
  %14 = shl nuw nsw i64 %13, 24
  %15 = getelementptr i8, ptr %3, i64 3
  %16 = load i8, ptr %15, align 1
  %17 = zext i8 %16 to i64
  %18 = shl nuw nsw i64 %17, 16
  %19 = getelementptr i8, ptr %3, i64 4
  %20 = load i8, ptr %19, align 1
  %21 = zext i8 %20 to i64
  %22 = shl nuw nsw i64 %21, 8
  %23 = getelementptr i8, ptr %3, i64 5
  %24 = load i8, ptr %23, align 1
  %25 = zext i8 %24 to i64
  %.not.i = icmp sgt i8 %4, -1
  %26 = select i1 %.not.i, i64 0, i64 -281474976710656
  %27 = or disjoint i64 %26, %6
  %28 = or disjoint i64 %27, %10
  %29 = or disjoint i64 %28, %14
  %30 = or disjoint i64 %29, %18
  %31 = or disjoint i64 %30, %25
  %.010.i = or disjoint i64 %31, %22
  ret i64 %.010.i
}